; Function Attrs: mustprogress nounwind uwtable
define dso_local void @_ZN10cmCPackLog18SetLogOutputStreamEPSo(ptr noundef nonnull align 8 captures(none) dereferenceable(232) initializes((216, 224)) %0, ptr noundef %1) local_unnamed_addr #4 align 2 {
  %3 = getelementptr inbounds nuw i8, ptr %0, i64 224
  %4 = load ptr, ptr %3, align 8, !tbaa !31
  store ptr null, ptr %3, align 8, !tbaa !31
  %.not.i.i = icmp eq ptr %4, null
  br i1 %.not.i.i, label %_ZNSt10unique_ptrISoSt14default_deleteISoEE5resetEPSo.exit, label %_ZNKSt14default_deleteISoEclEPSo.exit.i.i

_ZNKSt14default_deleteISoEclEPSo.exit.i.i:        ; preds = %2
  %5 = load ptr, ptr %4, align 8, !tbaa !32
  %6 = getelementptr inbounds nuw i8, ptr %5, i64 8
  %7 = load ptr, ptr %6, align 8
  tail call void %7(ptr noundef nonnull align 8 dereferenceable(8) %4) #16
  br label %_ZNSt10unique_ptrISoSt14default_deleteISoEE5resetEPSo.exit

_ZNSt10unique_ptrISoSt14default_deleteISoEE5resetEPSo.exit: ; preds = %2, %_ZNKSt14default_deleteISoEclEPSo.exit.i.i
  %8 = getelementptr inbounds nuw i8, ptr %0, i64 216
  store ptr %1, ptr %8, align 8, !tbaa !35
  ret void
}